target datalayout = "e-m:e-p270:32:32-p271:32:32-p272:64:64-i64:64-i128:128-f80:128-n8:16:32:64-S128"
target triple = "x86_64-pc-linux-gnu"

%struct.XLogReaderRoutine = type { ptr, ptr, ptr }
%struct.SummarizerReadLocalXLogPrivate = type { i32, i8, i64, i8 }
%struct.XLogReaderState = type { %struct.XLogReaderRoutine, i64, ptr, i64, i64, i64, i64, i64, i64, i64, i64, ptr, ptr, i64, i8, ptr, ptr, ptr, ptr, ptr, i32, %struct.WALSegmentContext, %struct.WALOpenSegment, i32, i64, i32, i64, i32, i64, i32, ptr, i32, ptr, i8, i8 }
%struct.WALSegmentContext = type { [1024 x i8], i32 }
%struct.WALOpenSegment = type { i32, i64, i32 }
%struct.WALReadError = type { i32, i32, i32, i32, %struct.WALOpenSegment }

@.str.2 = private unnamed_addr constant [16 x i8] c"walsummarizer.c\00", align 1
@.str.23 = private unnamed_addr constant [50 x i8] c"timeline %u became historic, can read up to %X/%X\00", align 1
@__func__.summarizer_read_local_xlog_page = private unnamed_addr constant [32 x i8] c"summarizer_read_local_xlog_page\00", align 1
@pages_read_since_last_sleep = internal global i64 0, align 8
@sleep_quanta = internal global i64 1, align 8
@MyLatch = external global ptr, align 8

; Function Attrs: nounwind uwtable
define internal i64 @GetLatestLSN(ptr noundef %0) #0 {
  %2 = alloca i64, align 8
  %3 = alloca ptr, align 8
  %4 = alloca i64, align 8
  %5 = alloca i32, align 4
  %6 = alloca i64, align 8
  %7 = alloca i32, align 4
  %8 = alloca i32, align 4
  %9 = alloca i32, align 4
  store ptr %0, ptr %3, align 8
  %10 = call zeroext i1 @RecoveryInProgress()
  br i1 %10, label %14, label %11

11:                                               ; preds = %1
  %12 = load ptr, ptr %3, align 8
  %13 = call i64 @GetFlushRecPtr(ptr noundef %12)
  store i64 %13, ptr %2, align 8
  br label %36

14:                                               ; preds = %1
  call void @llvm.lifetime.start.p0(i64 8, ptr %4) #12
  call void @llvm.lifetime.start.p0(i64 4, ptr %5) #12
  call void @llvm.lifetime.start.p0(i64 8, ptr %6) #12
  call void @llvm.lifetime.start.p0(i64 4, ptr %7) #12
  call void @llvm.lifetime.start.p0(i64 4, ptr %8) #12
  %15 = call i32 @GetWALInsertionTimeLineIfSet()
  store i32 %15, ptr %8, align 4
  %16 = icmp ne i32 %15, 0
  br i1 %16, label %17, label %21

17:                                               ; preds = %14
  %18 = load i32, ptr %8, align 4
  %19 = load ptr, ptr %3, align 8
  store i32 %18, ptr %19, align 4
  %20 = call i64 @GetXLogReplayRecPtr(ptr noundef null)
  store i64 %20, ptr %2, align 8
  store i32 1, ptr %9, align 4
  br label %35

21:                                               ; preds = %14
  %22 = call i64 @GetWalRcvFlushRecPtr(ptr noundef null, ptr noundef %5)
  store i64 %22, ptr %4, align 8
  %23 = call i64 @GetXLogReplayRecPtr(ptr noundef %7)
  store i64 %23, ptr %6, align 8
  %24 = load i64, ptr %4, align 8
  %25 = load i64, ptr %6, align 8
  %26 = icmp ugt i64 %24, %25
  br i1 %26, label %27, label %31

27:                                               ; preds = %21
  %28 = load i32, ptr %5, align 4
  %29 = load ptr, ptr %3, align 8
  store i32 %28, ptr %29, align 4
  %30 = load i64, ptr %4, align 8
  store i64 %30, ptr %2, align 8
  store i32 1, ptr %9, align 4
  br label %35

31:                                               ; preds = %21
  %32 = load i32, ptr %7, align 4
  %33 = load ptr, ptr %3, align 8
  store i32 %32, ptr %33, align 4
  %34 = load i64, ptr %6, align 8
  store i64 %34, ptr %2, align 8
  store i32 1, ptr %9, align 4
  br label %35

35:                                               ; preds = %31, %27, %17
  call void @llvm.lifetime.end.p0(i64 4, ptr %8) #12
  call void @llvm.lifetime.end.p0(i64 4, ptr %7) #12
  call void @llvm.lifetime.end.p0(i64 8, ptr %6) #12
  call void @llvm.lifetime.end.p0(i64 4, ptr %5) #12
  call void @llvm.lifetime.end.p0(i64 8, ptr %4) #12
  br label %36

36:                                               ; preds = %35, %11
  %37 = load i64, ptr %2, align 8
  ret i64 %37
}

; Function Attrs: nounwind uwtable
define internal void @summarizer_wait_for_wal() #0 {
  %1 = load i64, ptr @pages_read_since_last_sleep, align 8
  %2 = icmp eq i64 %1, 0
  br i1 %2, label %3, label %13

3:                                                ; preds = %0
  %4 = load i64, ptr @sleep_quanta, align 8
  %5 = mul i64 %4, 2
  %6 = icmp slt i64 %5, 150
  br i1 %6, label %7, label %10

7:                                                ; preds = %3
  %8 = load i64, ptr @sleep_quanta, align 8
  %9 = mul i64 %8, 2
  br label %11

10:                                               ; preds = %3
  br label %11

11:                                               ; preds = %10, %7
  %12 = phi i64 [ %9, %7 ], [ 150, %10 ]
  store i64 %12, ptr @sleep_quanta, align 8
  br label %28

13:                                               ; preds = %0
  %14 = load i64, ptr @pages_read_since_last_sleep, align 8
  %15 = icmp sgt i64 %14, 1
  br i1 %15, label %16, label %27

16:                                               ; preds = %13
  %17 = load i64, ptr @pages_read_since_last_sleep, align 8
  %18 = load i64, ptr @sleep_quanta, align 8
  %19 = sub i64 %18, 1
  %20 = icmp sgt i64 %17, %19
  br i1 %20, label %21, label %22

21:                                               ; preds = %16
  store i64 1, ptr @sleep_quanta, align 8
  br label %26

22:                                               ; preds = %16
  %23 = load i64, ptr @pages_read_since_last_sleep, align 8
  %24 = load i64, ptr @sleep_quanta, align 8
  %25 = sub i64 %24, %23
  store i64 %25, ptr @sleep_quanta, align 8
  br label %26

26:                                               ; preds = %22, %21
  br label %27

27:                                               ; preds = %26, %13
  br label %28

28:                                               ; preds = %27, %11
  %29 = load ptr, ptr @MyLatch, align 8
  %30 = load i64, ptr @sleep_quanta, align 8
  %31 = mul i64 %30, 200
  %32 = call i32 @WaitLatch(ptr noundef %29, i32 noundef 41, i64 noundef %31, i32 noundef 83886095)
  %33 = load ptr, ptr @MyLatch, align 8
  call void @ResetLatch(ptr noundef %33)
  store i64 0, ptr @pages_read_since_last_sleep, align 8
  ret void
}

; Function Attrs: nounwind uwtable
define internal i32 @summarizer_read_local_xlog_page(ptr noundef %0, i64 noundef %1, i32 noundef %2, i64 noundef %3, ptr noundef %4) #0 {
  %6 = alloca i32, align 4
  %7 = alloca ptr, align 8
  %8 = alloca i64, align 8
  %9 = alloca i32, align 4
  %10 = alloca i64, align 8
  %11 = alloca ptr, align 8
  %12 = alloca i32, align 4
  %13 = alloca %struct.WALReadError, align 8
  %14 = alloca ptr, align 8
  %15 = alloca i32, align 4
  %16 = alloca i64, align 8
  %17 = alloca i32, align 4
  %18 = alloca ptr, align 8
  %19 = alloca i64, align 8
  %20 = alloca i32, align 4
  store ptr %0, ptr %7, align 8
  store i64 %1, ptr %8, align 8
  store i32 %2, ptr %9, align 4
  store i64 %3, ptr %10, align 8
  store ptr %4, ptr %11, align 8
  call void @llvm.lifetime.start.p0(i64 4, ptr %12) #12
  call void @llvm.lifetime.start.p0(i64 40, ptr %13) #12
  call void @llvm.lifetime.start.p0(i64 8, ptr %14) #12
  call void @HandleWalSummarizerInterrupts()
  %21 = load ptr, ptr %7, align 8
  %22 = getelementptr inbounds nuw %struct.XLogReaderState, ptr %21, i32 0, i32 2
  %23 = load ptr, ptr %22, align 8
  store ptr %23, ptr %14, align 8
  br label %24

24:                                               ; preds = %109, %5
  br label %25

25:                                               ; preds = %24
  %26 = load i64, ptr %8, align 8
  %27 = add i64 %26, 8192
  %28 = load ptr, ptr %14, align 8
  %29 = getelementptr inbounds nuw %struct.SummarizerReadLocalXLogPrivate, ptr %28, i32 0, i32 2
  %30 = load i64, ptr %29, align 8
  %31 = icmp ule i64 %27, %30
  br i1 %31, label %32, label %33

32:                                               ; preds = %25
  store i32 8192, ptr %12, align 4
  br label %110

33:                                               ; preds = %25
  %34 = load i64, ptr %8, align 8
  %35 = load i32, ptr %9, align 4
  %36 = sext i32 %35 to i64
  %37 = add i64 %34, %36
  %38 = load ptr, ptr %14, align 8
  %39 = getelementptr inbounds nuw %struct.SummarizerReadLocalXLogPrivate, ptr %38, i32 0, i32 2
  %40 = load i64, ptr %39, align 8
  %41 = icmp ugt i64 %37, %40
  br i1 %41, label %42, label %101

42:                                               ; preds = %33
  %43 = load ptr, ptr %14, align 8
  %44 = getelementptr inbounds nuw %struct.SummarizerReadLocalXLogPrivate, ptr %43, i32 0, i32 1
  %45 = load i8, ptr %44, align 4, !range !4, !noundef !5
  %46 = trunc i8 %45 to i1
  br i1 %46, label %47, label %50

47:                                               ; preds = %42
  %48 = load ptr, ptr %14, align 8
  %49 = getelementptr inbounds nuw %struct.SummarizerReadLocalXLogPrivate, ptr %48, i32 0, i32 3
  store i8 1, ptr %49, align 8
  store i32 -1, ptr %6, align 4
  store i32 1, ptr %15, align 4
  br label %125

50:                                               ; preds = %42
  call void @llvm.lifetime.start.p0(i64 8, ptr %16) #12
  call void @llvm.lifetime.start.p0(i64 4, ptr %17) #12
  call void @HandleWalSummarizerInterrupts()
  call void @summarizer_wait_for_wal()
  %51 = call i64 @GetLatestLSN(ptr noundef %17)
  store i64 %51, ptr %16, align 8
  %52 = load ptr, ptr %14, align 8
  %53 = getelementptr inbounds nuw %struct.SummarizerReadLocalXLogPrivate, ptr %52, i32 0, i32 0
  %54 = load i32, ptr %53, align 8
  %55 = load i32, ptr %17, align 4
  %56 = icmp eq i32 %54, %55
  br i1 %56, label %57, label %61

57:                                               ; preds = %50
  %58 = load i64, ptr %16, align 8
  %59 = load ptr, ptr %14, align 8
  %60 = getelementptr inbounds nuw %struct.SummarizerReadLocalXLogPrivate, ptr %59, i32 0, i32 2
  store i64 %58, ptr %60, align 8
  br label %99

61:                                               ; preds = %50
  call void @llvm.lifetime.start.p0(i64 8, ptr %18) #12
  %62 = load i32, ptr %17, align 4
  %63 = call ptr @readTimeLineHistory(i32 noundef %62)
  store ptr %63, ptr %18, align 8
  call void @llvm.lifetime.start.p0(i64 8, ptr %19) #12
  %64 = load ptr, ptr %14, align 8
  %65 = getelementptr inbounds nuw %struct.SummarizerReadLocalXLogPrivate, ptr %64, i32 0, i32 1
  store i8 1, ptr %65, align 4
  %66 = load ptr, ptr %14, align 8
  %67 = getelementptr inbounds nuw %struct.SummarizerReadLocalXLogPrivate, ptr %66, i32 0, i32 0
  %68 = load i32, ptr %67, align 8
  %69 = load ptr, ptr %18, align 8
  %70 = call i64 @tliSwitchPoint(i32 noundef %68, ptr noundef %69, ptr noundef null)
  store i64 %70, ptr %19, align 8
  %71 = load i64, ptr %19, align 8
  %72 = load ptr, ptr %14, align 8
  %73 = getelementptr inbounds nuw %struct.SummarizerReadLocalXLogPrivate, ptr %72, i32 0, i32 2
  store i64 %71, ptr %73, align 8
  br label %74

74:                                               ; preds = %61
  br i1 false, label %75, label %77

75:                                               ; preds = %74
  %76 = call zeroext i1 @errstart_cold(i32 noundef 14, ptr noundef null) #13
  br i1 %76, label %79, label %96

77:                                               ; preds = %74
  %78 = call zeroext i1 @errstart(i32 noundef 14, ptr noundef null)
  br i1 %78, label %79, label %96

79:                                               ; preds = %77, %75
  %80 = load ptr, ptr %14, align 8
  %81 = getelementptr inbounds nuw %struct.SummarizerReadLocalXLogPrivate, ptr %80, i32 0, i32 0
  %82 = load i32, ptr %81, align 8
  br label %83

83:                                               ; preds = %79
  br label %84

84:                                               ; preds = %83
  br label %85

85:                                               ; preds = %84
  store i32 1, ptr %20, align 4
  %86 = load ptr, ptr %14, align 8
  %87 = getelementptr inbounds nuw %struct.SummarizerReadLocalXLogPrivate, ptr %86, i32 0, i32 2
  %88 = load i64, ptr %87, align 8
  %89 = lshr i64 %88, 32
  %90 = trunc i64 %89 to i32
  %91 = load ptr, ptr %14, align 8
  %92 = getelementptr inbounds nuw %struct.SummarizerReadLocalXLogPrivate, ptr %91, i32 0, i32 2
  %93 = load i64, ptr %92, align 8
  %94 = trunc i64 %93 to i32
  %95 = call i32 (ptr, ...) @errmsg_internal(ptr noundef @.str.23, i32 noundef %82, i32 noundef %90, i32 noundef %94)
  call void @errfinish(ptr noundef @.str.2, i32 noundef 1581, ptr noundef @__func__.summarizer_read_local_xlog_page)
  br label %96

96:                                               ; preds = %85, %77, %75
  br label %97

97:                                               ; preds = %96
  br label %98

98:                                               ; preds = %97
  call void @llvm.lifetime.end.p0(i64 8, ptr %19) #12
  call void @llvm.lifetime.end.p0(i64 8, ptr %18) #12
  br label %99

99:                                               ; preds = %98, %57
  call void @llvm.lifetime.end.p0(i64 4, ptr %17) #12
  call void @llvm.lifetime.end.p0(i64 8, ptr %16) #12
  br label %100

100:                                              ; preds = %99
  br label %108

101:                                              ; preds = %33
  %102 = load ptr, ptr %14, align 8
  %103 = getelementptr inbounds nuw %struct.SummarizerReadLocalXLogPrivate, ptr %102, i32 0, i32 2
  %104 = load i64, ptr %103, align 8
  %105 = load i64, ptr %8, align 8
  %106 = sub i64 %104, %105
  %107 = trunc i64 %106 to i32
  store i32 %107, ptr %12, align 4
  br label %110

108:                                              ; preds = %100
  br label %109

109:                                              ; preds = %108
  br label %24

110:                                              ; preds = %101, %32
  %111 = load ptr, ptr %7, align 8
  %112 = load ptr, ptr %11, align 8
  %113 = load i64, ptr %8, align 8
  %114 = load i32, ptr %12, align 4
  %115 = sext i32 %114 to i64
  %116 = load ptr, ptr %14, align 8
  %117 = getelementptr inbounds nuw %struct.SummarizerReadLocalXLogPrivate, ptr %116, i32 0, i32 0
  %118 = load i32, ptr %117, align 8
  %119 = call zeroext i1 @WALRead(ptr noundef %111, ptr noundef %112, i64 noundef %113, i64 noundef %115, i32 noundef %118, ptr noundef %13)
  br i1 %119, label %121, label %120

120:                                              ; preds = %110
  call void @WALReadRaiseError(ptr noundef %13)
  br label %121

121:                                              ; preds = %120, %110
  %122 = load i64, ptr @pages_read_since_last_sleep, align 8
  %123 = add i64 %122, 1
  store i64 %123, ptr @pages_read_since_last_sleep, align 8
  %124 = load i32, ptr %12, align 4
  store i32 %124, ptr %6, align 4
  store i32 1, ptr %15, align 4
  br label %125

125:                                              ; preds = %121, %47
  call void @llvm.lifetime.end.p0(i64 8, ptr %14) #12
  call void @llvm.lifetime.end.p0(i64 40, ptr %13) #12
  call void @llvm.lifetime.end.p0(i64 4, ptr %12) #12
  %126 = load i32, ptr %6, align 4
  ret i32 %126
}