; Function Attrs: nounwind uwtable
define internal i32 @summarizer_read_local_xlog_page(ptr noundef %0, i64 noundef %1, i32 noundef %2, i64 %3, ptr noundef %4) #1 {
  %6 = alloca i32, align 4
  %7 = alloca i32, align 4
  %8 = alloca %struct.WALReadError, align 8
  %9 = alloca i32, align 4
  call void @llvm.lifetime.start.p0(i64 40, ptr nonnull %8) #11
  tail call fastcc void @HandleWalSummarizerInterrupts()
  %10 = getelementptr inbounds nuw i8, ptr %0, i64 32
  %11 = load ptr, ptr %10, align 8
  %12 = add i64 %1, 8192
  %13 = getelementptr inbounds nuw i8, ptr %11, i64 8
  %14 = load i64, ptr %13, align 8
  %.not32 = icmp ugt i64 %12, %14
  br i1 %.not32, label %.lr.ph, label %.loopexit

.lr.ph:                                           ; preds = %5
  %15 = sext i32 %2 to i64
  %16 = add i64 %1, %15
  %17 = getelementptr inbounds nuw i8, ptr %11, i64 4
  br label %18

18:                                               ; preds = %.lr.ph, %75
  %19 = phi i64 [ %14, %.lr.ph ], [ %76, %75 ]
  %20 = icmp ugt i64 %16, %19
  br i1 %20, label %21, label %77

21:                                               ; preds = %18
  %22 = load i8, ptr %17, align 4, !range !4, !noundef !5
  %23 = trunc nuw i8 %22 to i1
  br i1 %23, label %24, label %26

24:                                               ; preds = %21
  %25 = getelementptr inbounds nuw i8, ptr %11, i64 16
  store i8 1, ptr %25, align 8
  br label %87

26:                                               ; preds = %21
  call void @llvm.lifetime.start.p0(i64 4, ptr nonnull %9) #11
  call fastcc void @HandleWalSummarizerInterrupts()
  %27 = load i64, ptr @pages_read_since_last_sleep, align 8
  %28 = icmp eq i64 %27, 0
  br i1 %28, label %29, label %33

29:                                               ; preds = %26
  %30 = load i64, ptr @sleep_quanta, align 8
  %31 = shl i64 %30, 1
  %32 = call i64 @llvm.smin.i64(i64 %31, i64 150)
  br label %.sink.split.i

33:                                               ; preds = %26
  %34 = icmp sgt i64 %27, 1
  %.pre.i = load i64, ptr @sleep_quanta, align 8
  br i1 %34, label %35, label %summarizer_wait_for_wal.exit

35:                                               ; preds = %33
  %36 = add i64 %.pre.i, -1
  %37 = icmp sgt i64 %27, %36
  %38 = sub i64 %.pre.i, %27
  %spec.select.i = select i1 %37, i64 1, i64 %38
  br label %.sink.split.i

.sink.split.i:                                    ; preds = %35, %29
  %.sink.i = phi i64 [ %32, %29 ], [ %spec.select.i, %35 ]
  store i64 %.sink.i, ptr @sleep_quanta, align 8
  br label %summarizer_wait_for_wal.exit

summarizer_wait_for_wal.exit:                     ; preds = %33, %.sink.split.i
  %39 = phi i64 [ %.pre.i, %33 ], [ %.sink.i, %.sink.split.i ]
  %40 = load ptr, ptr @MyLatch, align 8
  %41 = mul i64 %39, 200
  %42 = call i32 @WaitLatch(ptr noundef %40, i32 noundef 41, i64 noundef %41, i32 noundef 83886095) #11
  %43 = load ptr, ptr @MyLatch, align 8
  call void @ResetLatch(ptr noundef %43) #11
  store i64 0, ptr @pages_read_since_last_sleep, align 8
  %44 = call zeroext i1 @RecoveryInProgress() #11
  br i1 %44, label %47, label %45

45:                                               ; preds = %summarizer_wait_for_wal.exit
  %46 = call i64 @GetFlushRecPtr(ptr noundef nonnull %9) #11
  br label %GetLatestLSN.exit

47:                                               ; preds = %summarizer_wait_for_wal.exit
  call void @llvm.lifetime.start.p0(i64 4, ptr nonnull %6) #11
  call void @llvm.lifetime.start.p0(i64 4, ptr nonnull %7) #11
  %48 = call i32 @GetWALInsertionTimeLineIfSet() #11
  %.not.i = icmp eq i32 %48, 0
  br i1 %.not.i, label %51, label %49

49:                                               ; preds = %47
  store i32 %48, ptr %9, align 4
  %50 = call i64 @GetXLogReplayRecPtr(ptr noundef null) #11
  br label %59

51:                                               ; preds = %47
  %52 = call i64 @GetWalRcvFlushRecPtr(ptr noundef null, ptr noundef nonnull %6) #11
  %53 = call i64 @GetXLogReplayRecPtr(ptr noundef nonnull %7) #11
  %54 = icmp ugt i64 %52, %53
  br i1 %54, label %55, label %57

55:                                               ; preds = %51
  %56 = load i32, ptr %6, align 4
  store i32 %56, ptr %9, align 4
  br label %59

57:                                               ; preds = %51
  %58 = load i32, ptr %7, align 4
  store i32 %58, ptr %9, align 4
  br label %59

59:                                               ; preds = %57, %55, %49
  %.1.i = phi i64 [ %50, %49 ], [ %52, %55 ], [ %53, %57 ]
  call void @llvm.lifetime.end.p0(i64 4, ptr nonnull %7) #11
  call void @llvm.lifetime.end.p0(i64 4, ptr nonnull %6) #11
  br label %GetLatestLSN.exit

GetLatestLSN.exit:                                ; preds = %45, %59
  %.0.i = phi i64 [ %.1.i, %59 ], [ %46, %45 ]
  %60 = load i32, ptr %11, align 8
  %61 = load i32, ptr %9, align 4
  %62 = icmp eq i32 %60, %61
  br i1 %62, label %63, label %64

63:                                               ; preds = %GetLatestLSN.exit
  store i64 %.0.i, ptr %13, align 8
  br label %75

64:                                               ; preds = %GetLatestLSN.exit
  %65 = call ptr @readTimeLineHistory(i32 noundef %61) #11
  store i8 1, ptr %17, align 4
  %66 = load i32, ptr %11, align 8
  %67 = call i64 @tliSwitchPoint(i32 noundef %66, ptr noundef %65, ptr noundef null) #11
  store i64 %67, ptr %13, align 8
  %68 = call zeroext i1 @errstart(i32 noundef 14, ptr noundef null) #11
  %.pre35 = load i64, ptr %13, align 8
  br i1 %68, label %69, label %75

69:                                               ; preds = %64
  %70 = load i32, ptr %11, align 8
  %71 = lshr i64 %.pre35, 32
  %72 = trunc nuw i64 %71 to i32
  %73 = trunc i64 %.pre35 to i32
  %74 = call i32 (ptr, ...) @errmsg_internal(ptr noundef nonnull @.str.23, i32 noundef %70, i32 noundef %72, i32 noundef %73) #11
  call void @errfinish(ptr noundef nonnull @.str.2, i32 noundef 1581, ptr noundef nonnull @__func__.summarizer_read_local_xlog_page) #11
  %.pre = load i64, ptr %13, align 8
  br label %75

75:                                               ; preds = %64, %69, %63
  %76 = phi i64 [ %.pre35, %64 ], [ %.pre, %69 ], [ %.0.i, %63 ]
  call void @llvm.lifetime.end.p0(i64 4, ptr nonnull %9) #11
  %.not = icmp ugt i64 %12, %76
  br i1 %.not, label %18, label %.loopexit

77:                                               ; preds = %18
  %78 = sub i64 %19, %1
  %79 = trunc i64 %78 to i32
  br label %.loopexit

.loopexit:                                        ; preds = %75, %5, %77
  %.027 = phi i32 [ %79, %77 ], [ 8192, %5 ], [ 8192, %75 ]
  %80 = sext i32 %.027 to i64
  %81 = load i32, ptr %11, align 8
  %82 = call zeroext i1 @WALRead(ptr noundef %0, ptr noundef %4, i64 noundef %1, i64 noundef %80, i32 noundef %81, ptr noundef nonnull %8) #11
  br i1 %82, label %84, label %83

83:                                               ; preds = %.loopexit
  call void @WALReadRaiseError(ptr noundef nonnull %8) #11
  br label %84

84:                                               ; preds = %83, %.loopexit
  %85 = load i64, ptr @pages_read_since_last_sleep, align 8
  %86 = add i64 %85, 1
  store i64 %86, ptr @pages_read_since_last_sleep, align 8
  br label %87

87:                                               ; preds = %84, %24
  %.0 = phi i32 [ %.027, %84 ], [ -1, %24 ]
  call void @llvm.lifetime.end.p0(i64 40, ptr nonnull %8) #11
  ret i32 %.0
}